target datalayout = "e-m:e-p270:32:32-p271:32:32-p272:64:64-i64:64-i128:128-f80:128-n8:16:32:64-S128"
target triple = "x86_64-pc-linux-gnu"

%struct.MXFMetadataSet = type { [16 x i8], i64 }
%struct.MXFTaggedValue = type { %struct.MXFMetadataSet, ptr, ptr }

@mxf_indirect_value_utf16le = internal constant [17 x i8] c"L\00\02\10\01\00\00\00\00\06\0E+4\01\04\01\01", align 16
@mxf_indirect_value_utf16be = internal constant [17 x i8] c"B\01\10\02\00\00\00\00\00\06\0E+4\01\04\01\01", align 16

; Function Attrs: nounwind uwtable
define internal i32 @mxf_read_utf16le_string(ptr noundef %0, i32 noundef %1, ptr noundef %2) #0 {
  %4 = alloca ptr, align 8
  %5 = alloca i32, align 4
  %6 = alloca ptr, align 8
  store ptr %0, ptr %4, align 8, !tbaa !138
  store i32 %1, ptr %5, align 4, !tbaa !47
  store ptr %2, ptr %6, align 8, !tbaa !327
  %7 = load ptr, ptr %4, align 8, !tbaa !138
  %8 = load i32, ptr %5, align 4, !tbaa !47
  %9 = load ptr, ptr %6, align 8, !tbaa !327
  %10 = call i32 @mxf_read_utf16_string(ptr noundef %7, i32 noundef %8, ptr noundef %9, i32 noundef 0)
  ret i32 %10
}

; Function Attrs: inlinehint nounwind uwtable
define internal i32 @mxf_read_utf16_string(ptr noundef %0, i32 noundef %1, ptr noundef %2, i32 noundef %3) #10 {
  %5 = alloca i32, align 4
  %6 = alloca ptr, align 8
  %7 = alloca i32, align 4
  %8 = alloca ptr, align 8
  %9 = alloca i32, align 4
  %10 = alloca i32, align 4
  %11 = alloca i64, align 8
  %12 = alloca i32, align 4
  store ptr %0, ptr %6, align 8, !tbaa !138
  store i32 %1, ptr %7, align 4, !tbaa !47
  store ptr %2, ptr %8, align 8, !tbaa !327
  store i32 %3, ptr %9, align 4, !tbaa !47
  call void @llvm.lifetime.start.p0(i64 4, ptr %10) #13
  call void @llvm.lifetime.start.p0(i64 8, ptr %11) #13
  %13 = load i32, ptr %7, align 4, !tbaa !47
  %14 = icmp slt i32 %13, 0
  br i1 %14, label %18, label %15

15:                                               ; preds = %4
  %16 = load i32, ptr %7, align 4, !tbaa !47
  %17 = icmp sgt i32 %16, 1073741823
  br i1 %17, label %18, label %19

18:                                               ; preds = %15, %4
  store i32 -22, ptr %5, align 4
  store i32 1, ptr %12, align 4
  br label %62

19:                                               ; preds = %15
  %20 = load i32, ptr %7, align 4, !tbaa !47
  %21 = load i32, ptr %7, align 4, !tbaa !47
  %22 = sdiv i32 %21, 2
  %23 = add nsw i32 %20, %22
  %24 = add nsw i32 %23, 1
  %25 = sext i32 %24 to i64
  store i64 %25, ptr %11, align 8, !tbaa !37
  %26 = load ptr, ptr %8, align 8, !tbaa !327
  %27 = load ptr, ptr %26, align 8, !tbaa !13
  call void @av_free(ptr noundef %27)
  %28 = load i64, ptr %11, align 8, !tbaa !37
  %29 = call noalias ptr @av_malloc(i64 noundef %28)
  %30 = load ptr, ptr %8, align 8, !tbaa !327
  store ptr %29, ptr %30, align 8, !tbaa !13
  %31 = load ptr, ptr %8, align 8, !tbaa !327
  %32 = load ptr, ptr %31, align 8, !tbaa !13
  %33 = icmp ne ptr %32, null
  br i1 %33, label %35, label %34

34:                                               ; preds = %19
  store i32 -12, ptr %5, align 4
  store i32 1, ptr %12, align 4
  br label %62

35:                                               ; preds = %19
  %36 = load i32, ptr %9, align 4, !tbaa !47
  %37 = icmp ne i32 %36, 0
  br i1 %37, label %38, label %46

38:                                               ; preds = %35
  %39 = load ptr, ptr %6, align 8, !tbaa !138
  %40 = load i32, ptr %7, align 4, !tbaa !47
  %41 = load ptr, ptr %8, align 8, !tbaa !327
  %42 = load ptr, ptr %41, align 8, !tbaa !13
  %43 = load i64, ptr %11, align 8, !tbaa !37
  %44 = trunc i64 %43 to i32
  %45 = call i32 @avio_get_str16be(ptr noundef %39, i32 noundef %40, ptr noundef %42, i32 noundef %44)
  store i32 %45, ptr %10, align 4, !tbaa !47
  br label %54

46:                                               ; preds = %35
  %47 = load ptr, ptr %6, align 8, !tbaa !138
  %48 = load i32, ptr %7, align 4, !tbaa !47
  %49 = load ptr, ptr %8, align 8, !tbaa !327
  %50 = load ptr, ptr %49, align 8, !tbaa !13
  %51 = load i64, ptr %11, align 8, !tbaa !37
  %52 = trunc i64 %51 to i32
  %53 = call i32 @avio_get_str16le(ptr noundef %47, i32 noundef %48, ptr noundef %50, i32 noundef %52)
  store i32 %53, ptr %10, align 4, !tbaa !47
  br label %54

54:                                               ; preds = %46, %38
  %55 = load i32, ptr %10, align 4, !tbaa !47
  %56 = icmp slt i32 %55, 0
  br i1 %56, label %57, label %60

57:                                               ; preds = %54
  %58 = load ptr, ptr %8, align 8, !tbaa !327
  call void @av_freep(ptr noundef %58)
  %59 = load i32, ptr %10, align 4, !tbaa !47
  store i32 %59, ptr %5, align 4
  store i32 1, ptr %12, align 4
  br label %62

60:                                               ; preds = %54
  %61 = load i32, ptr %10, align 4, !tbaa !47
  store i32 %61, ptr %5, align 4
  store i32 1, ptr %12, align 4
  br label %62

62:                                               ; preds = %60, %57, %34, %18
  call void @llvm.lifetime.end.p0(i64 8, ptr %11) #13
  call void @llvm.lifetime.end.p0(i64 4, ptr %10) #13
  %63 = load i32, ptr %5, align 4
  ret i32 %63
}

; Function Attrs: nounwind uwtable
define internal i32 @mxf_read_indirect_value(ptr noundef %0, ptr noundef %1, i32 noundef %2) #0 {
  %4 = alloca i32, align 4
  %5 = alloca ptr, align 8
  %6 = alloca ptr, align 8
  %7 = alloca i32, align 4
  %8 = alloca ptr, align 8
  %9 = alloca [17 x i8], align 16
  %10 = alloca i32, align 4
  %11 = alloca i32, align 4
  store ptr %0, ptr %5, align 8, !tbaa !90
  store ptr %1, ptr %6, align 8, !tbaa !138
  store i32 %2, ptr %7, align 4, !tbaa !47
  call void @llvm.lifetime.start.p0(i64 8, ptr %8) #13
  %12 = load ptr, ptr %5, align 8, !tbaa !90
  store ptr %12, ptr %8, align 8, !tbaa !90
  call void @llvm.lifetime.start.p0(i64 17, ptr %9) #13
  call void @llvm.lifetime.start.p0(i64 4, ptr %10) #13
  %13 = load i32, ptr %7, align 4, !tbaa !47
  %14 = icmp sle i32 %13, 17
  br i1 %14, label %15, label %16

15:                                               ; preds = %3
  store i32 0, ptr %4, align 4
  store i32 1, ptr %11, align 4
  br label %48

16:                                               ; preds = %3
  %17 = load ptr, ptr %6, align 8, !tbaa !138
  %18 = getelementptr inbounds [17 x i8], ptr %9, i64 0, i64 0
  %19 = call i32 @ffio_read_size(ptr noundef %17, ptr noundef %18, i32 noundef 17)
  store i32 %19, ptr %10, align 4, !tbaa !47
  %20 = load i32, ptr %10, align 4, !tbaa !47
  %21 = icmp slt i32 %20, 0
  br i1 %21, label %22, label %24

22:                                               ; preds = %16
  %23 = load i32, ptr %10, align 4, !tbaa !47
  store i32 %23, ptr %4, align 4
  store i32 1, ptr %11, align 4
  br label %48

24:                                               ; preds = %16
  %25 = getelementptr inbounds [17 x i8], ptr %9, i64 0, i64 0
  %26 = call i32 @memcmp(ptr noundef %25, ptr noundef @mxf_indirect_value_utf16le, i64 noundef 17) #14
  %27 = icmp eq i32 %26, 0
  br i1 %27, label %28, label %35

28:                                               ; preds = %24
  %29 = load ptr, ptr %6, align 8, !tbaa !138
  %30 = load i32, ptr %7, align 4, !tbaa !47
  %31 = sub nsw i32 %30, 17
  %32 = load ptr, ptr %8, align 8, !tbaa !90
  %33 = getelementptr inbounds nuw %struct.MXFTaggedValue, ptr %32, i32 0, i32 2
  %34 = call i32 @mxf_read_utf16le_string(ptr noundef %29, i32 noundef %31, ptr noundef %33)
  store i32 %34, ptr %4, align 4
  store i32 1, ptr %11, align 4
  br label %48

35:                                               ; preds = %24
  %36 = getelementptr inbounds [17 x i8], ptr %9, i64 0, i64 0
  %37 = call i32 @memcmp(ptr noundef %36, ptr noundef @mxf_indirect_value_utf16be, i64 noundef 17) #14
  %38 = icmp eq i32 %37, 0
  br i1 %38, label %39, label %46

39:                                               ; preds = %35
  %40 = load ptr, ptr %6, align 8, !tbaa !138
  %41 = load i32, ptr %7, align 4, !tbaa !47
  %42 = sub nsw i32 %41, 17
  %43 = load ptr, ptr %8, align 8, !tbaa !90
  %44 = getelementptr inbounds nuw %struct.MXFTaggedValue, ptr %43, i32 0, i32 2
  %45 = call i32 @mxf_read_utf16be_string(ptr noundef %40, i32 noundef %42, ptr noundef %44)
  store i32 %45, ptr %4, align 4
  store i32 1, ptr %11, align 4
  br label %48

46:                                               ; preds = %35
  br label %47

47:                                               ; preds = %46
  store i32 0, ptr %4, align 4
  store i32 1, ptr %11, align 4
  br label %48

48:                                               ; preds = %47, %39, %28, %22, %15
  call void @llvm.lifetime.end.p0(i64 4, ptr %10) #13
  call void @llvm.lifetime.end.p0(i64 17, ptr %9) #13
  call void @llvm.lifetime.end.p0(i64 8, ptr %8) #13
  %49 = load i32, ptr %4, align 4
  ret i32 %49
}

; Function Attrs: nounwind uwtable
define internal i32 @mxf_read_utf16be_string(ptr noundef %0, i32 noundef %1, ptr noundef %2) #0 {
  %4 = alloca ptr, align 8
  %5 = alloca i32, align 4
  %6 = alloca ptr, align 8
  store ptr %0, ptr %4, align 8, !tbaa !138
  store i32 %1, ptr %5, align 4, !tbaa !47
  store ptr %2, ptr %6, align 8, !tbaa !327
  %7 = load ptr, ptr %4, align 8, !tbaa !138
  %8 = load i32, ptr %5, align 4, !tbaa !47
  %9 = load ptr, ptr %6, align 8, !tbaa !327
  %10 = call i32 @mxf_read_utf16_string(ptr noundef %7, i32 noundef %8, ptr noundef %9, i32 noundef 1)
  ret i32 %10
}

; Function Attrs: nounwind uwtable
define internal i32 @mxf_read_tagged_value(ptr noundef %0, ptr noundef %1, i32 noundef %2, i32 noundef %3, ptr noundef %4, i64 noundef %5) #0 {
  %7 = alloca i32, align 4
  %8 = alloca ptr, align 8
  %9 = alloca ptr, align 8
  %10 = alloca i32, align 4
  %11 = alloca i32, align 4
  %12 = alloca ptr, align 8
  %13 = alloca i64, align 8
  %14 = alloca ptr, align 8
  %15 = alloca i32, align 4
  store ptr %0, ptr %8, align 8, !tbaa !90
  store ptr %1, ptr %9, align 8, !tbaa !138
  store i32 %2, ptr %10, align 4, !tbaa !47
  store i32 %3, ptr %11, align 4, !tbaa !47
  store ptr %4, ptr %12, align 8, !tbaa !13
  store i64 %5, ptr %13, align 8, !tbaa !37
  call void @llvm.lifetime.start.p0(i64 8, ptr %14) #13
  %16 = load ptr, ptr %8, align 8, !tbaa !90
  store ptr %16, ptr %14, align 8, !tbaa !90
  %17 = load i32, ptr %10, align 4, !tbaa !47
  switch i32 %17, label %29 [
    i32 20481, label %18
    i32 20483, label %24
  ]

18:                                               ; preds = %6
  %19 = load ptr, ptr %9, align 8, !tbaa !138
  %20 = load i32, ptr %11, align 4, !tbaa !47
  %21 = load ptr, ptr %14, align 8, !tbaa !90
  %22 = getelementptr inbounds nuw %struct.MXFTaggedValue, ptr %21, i32 0, i32 1
  %23 = call i32 @mxf_read_utf16be_string(ptr noundef %19, i32 noundef %20, ptr noundef %22)
  store i32 %23, ptr %7, align 4
  store i32 1, ptr %15, align 4
  br label %30

24:                                               ; preds = %6
  %25 = load ptr, ptr %14, align 8, !tbaa !90
  %26 = load ptr, ptr %9, align 8, !tbaa !138
  %27 = load i32, ptr %11, align 4, !tbaa !47
  %28 = call i32 @mxf_read_indirect_value(ptr noundef %25, ptr noundef %26, i32 noundef %27)
  store i32 %28, ptr %7, align 4
  store i32 1, ptr %15, align 4
  br label %30

29:                                               ; preds = %6
  store i32 0, ptr %7, align 4
  store i32 1, ptr %15, align 4
  br label %30

30:                                               ; preds = %29, %24, %18
  call void @llvm.lifetime.end.p0(i64 8, ptr %14) #13
  %31 = load i32, ptr %7, align 4
  ret i32 %31
}