; Function Attrs: nounwind uwtable
define internal i32 @mxf_read_tagged_value(ptr noundef %0, ptr noundef %1, i32 noundef %2, i32 noundef %3, ptr readnone captures(none) %4, i64 %5) #1 {
  %7 = alloca [17 x i8], align 16
  switch i32 %2, label %mxf_read_utf16be_string.exit [
    i32 20481, label %8
    i32 20483, label %21
  ]

8:                                                ; preds = %6
  %9 = getelementptr inbounds nuw i8, ptr %0, i64 24
  %or.cond.i.i = icmp ugt i32 %3, 1073741823
  br i1 %or.cond.i.i, label %mxf_read_utf16be_string.exit, label %10

10:                                               ; preds = %8
  %11 = lshr i32 %3, 1
  %12 = add nuw nsw i32 %3, 1
  %13 = add nuw nsw i32 %12, %11
  %14 = zext nneg i32 %13 to i64
  %15 = load ptr, ptr %9, align 8, !tbaa !245
  tail call void @av_free(ptr noundef %15) #15
  %16 = tail call noalias ptr @av_malloc(i64 noundef %14) #15
  store ptr %16, ptr %9, align 8, !tbaa !245
  %.not.i.i = icmp eq ptr %16, null
  br i1 %.not.i.i, label %mxf_read_utf16be_string.exit, label %17

17:                                               ; preds = %10
  %18 = tail call i32 @avio_get_str16be(ptr noundef %1, i32 noundef %3, ptr noundef nonnull %16, i32 noundef %13) #15
  %19 = icmp slt i32 %18, 0
  br i1 %19, label %20, label %mxf_read_utf16be_string.exit

20:                                               ; preds = %17
  tail call void @av_freep(ptr noundef nonnull %9) #15
  br label %mxf_read_utf16be_string.exit

21:                                               ; preds = %6
  call void @llvm.lifetime.start.p0(i64 17, ptr nonnull %7) #15
  %22 = icmp slt i32 %3, 18
  br i1 %22, label %mxf_read_indirect_value.exit, label %23

23:                                               ; preds = %21
  %24 = call i32 @ffio_read_size(ptr noundef %1, ptr noundef nonnull %7, i32 noundef 17) #15
  %25 = icmp slt i32 %24, 0
  br i1 %25, label %mxf_read_indirect_value.exit, label %26

26:                                               ; preds = %23
  %bcmp.i = call i32 @bcmp(ptr noundef nonnull dereferenceable(17) %7, ptr noundef nonnull dereferenceable(17) @mxf_indirect_value_utf16le, i64 17)
  %27 = icmp eq i32 %bcmp.i, 0
  br i1 %27, label %28, label %41

28:                                               ; preds = %26
  %29 = add nsw i32 %3, -17
  %30 = getelementptr inbounds nuw i8, ptr %0, i64 32
  %or.cond.i.i.i = icmp samesign ugt i32 %29, 1073741823
  br i1 %or.cond.i.i.i, label %mxf_read_indirect_value.exit, label %31

31:                                               ; preds = %28
  %32 = lshr i32 %29, 1
  %33 = add nsw i32 %3, -16
  %34 = add nuw nsw i32 %33, %32
  %35 = zext nneg i32 %34 to i64
  %36 = load ptr, ptr %30, align 8, !tbaa !245
  call void @av_free(ptr noundef %36) #15
  %37 = call noalias ptr @av_malloc(i64 noundef %35) #15
  store ptr %37, ptr %30, align 8, !tbaa !245
  %.not.i.i.i = icmp eq ptr %37, null
  br i1 %.not.i.i.i, label %mxf_read_indirect_value.exit, label %38

38:                                               ; preds = %31
  %39 = call i32 @avio_get_str16le(ptr noundef %1, i32 noundef range(i32 1, 2147483631) %29, ptr noundef nonnull %37, i32 noundef %34) #15
  %40 = icmp slt i32 %39, 0
  br i1 %40, label %mxf_read_utf16le_string.exit.sink.split.i, label %mxf_read_indirect_value.exit

41:                                               ; preds = %26
  %bcmp13.i = call i32 @bcmp(ptr noundef nonnull dereferenceable(17) %7, ptr noundef nonnull dereferenceable(17) @mxf_indirect_value_utf16be, i64 17)
  %42 = icmp eq i32 %bcmp13.i, 0
  br i1 %42, label %43, label %mxf_read_indirect_value.exit

43:                                               ; preds = %41
  %44 = add nsw i32 %3, -17
  %45 = getelementptr inbounds nuw i8, ptr %0, i64 32
  %or.cond.i.i14.i = icmp samesign ugt i32 %44, 1073741823
  br i1 %or.cond.i.i14.i, label %mxf_read_indirect_value.exit, label %46

46:                                               ; preds = %43
  %47 = lshr i32 %44, 1
  %48 = add nsw i32 %3, -16
  %49 = add nuw nsw i32 %48, %47
  %50 = zext nneg i32 %49 to i64
  %51 = load ptr, ptr %45, align 8, !tbaa !245
  call void @av_free(ptr noundef %51) #15
  %52 = call noalias ptr @av_malloc(i64 noundef %50) #15
  store ptr %52, ptr %45, align 8, !tbaa !245
  %.not.i.i15.i = icmp eq ptr %52, null
  br i1 %.not.i.i15.i, label %mxf_read_indirect_value.exit, label %53

53:                                               ; preds = %46
  %54 = call i32 @avio_get_str16be(ptr noundef %1, i32 noundef %44, ptr noundef nonnull %52, i32 noundef %49) #15
  %55 = icmp slt i32 %54, 0
  br i1 %55, label %mxf_read_utf16le_string.exit.sink.split.i, label %mxf_read_indirect_value.exit

mxf_read_utf16le_string.exit.sink.split.i:        ; preds = %53, %38
  %.sink.i = phi ptr [ %30, %38 ], [ %45, %53 ]
  %.0.ph.i = phi i32 [ %39, %38 ], [ %54, %53 ]
  call void @av_freep(ptr noundef nonnull %.sink.i) #15
  br label %mxf_read_indirect_value.exit

mxf_read_indirect_value.exit:                     ; preds = %21, %23, %28, %31, %38, %41, %43, %46, %53, %mxf_read_utf16le_string.exit.sink.split.i
  %.0.i = phi i32 [ 0, %21 ], [ %24, %23 ], [ 0, %41 ], [ -22, %28 ], [ -12, %31 ], [ %39, %38 ], [ -22, %43 ], [ -12, %46 ], [ %54, %53 ], [ %.0.ph.i, %mxf_read_utf16le_string.exit.sink.split.i ]
  call void @llvm.lifetime.end.p0(i64 17, ptr nonnull %7) #15
  br label %mxf_read_utf16be_string.exit

mxf_read_utf16be_string.exit:                     ; preds = %20, %17, %10, %8, %6, %mxf_read_indirect_value.exit
  %.0 = phi i32 [ %.0.i, %mxf_read_indirect_value.exit ], [ 0, %6 ], [ %18, %20 ], [ -22, %8 ], [ -12, %10 ], [ %18, %17 ]
  ret i32 %.0
}